target datalayout = "e-m:e-p270:32:32-p271:32:32-p272:64:64-i64:64-i128:128-f80:128-n8:16:32:64-S128"
target triple = "x86_64-pc-linux-gnu"

%"struct.std::array" = type { [79 x %"struct.glslang::(anonymous namespace)::BuiltInFunction"] }
%"struct.glslang::(anonymous namespace)::BuiltInFunction" = type { i32, ptr, i32, i32, i32, %class.span }
%class.span = type { ptr, i64 }
%"struct.std::array.2" = type { [3 x %"struct.glslang::(anonymous namespace)::BuiltInFunction"] }
%class.anon = type { ptr, ptr, ptr }
%class.span.1 = type { ptr, i64 }
%"class.glslang::TBuiltInParseables" = type { ptr, %"class.std::__cxx11::basic_string", [14 x %"class.std::__cxx11::basic_string"] }
%"class.std::__cxx11::basic_string" = type { %"struct.std::__cxx11::basic_string<char, std::char_traits<char>, glslang::pool_allocator<char>>::_Alloc_hider", i64, %union.anon }
%"struct.std::__cxx11::basic_string<char, std::char_traits<char>, glslang::pool_allocator<char>>::_Alloc_hider" = type { %"class.glslang::pool_allocator", ptr }
%"class.glslang::pool_allocator" = type { ptr }
%union.anon = type { i64, [8 x i8] }

@_ZN7glslang12_GLOBAL__N_113BaseFunctionsE = internal global %"struct.std::array" zeroinitializer, align 8

; Function Attrs: mustprogress nounwind uwtable
define internal noundef ptr @_ZNSt14__array_traitsIN7glslang12_GLOBAL__N_115BuiltInFunctionELm3EE6_S_ptrERA3_KS2_(ptr noundef nonnull align 8 dereferenceable(144) %0) #2 align 2 {
  %2 = alloca ptr, align 8
  store ptr %0, ptr %2, align 8
  %3 = load ptr, ptr %2, align 8
  %4 = getelementptr inbounds [3 x %"struct.glslang::(anonymous namespace)::BuiltInFunction"], ptr %3, i64 0, i64 0
  ret ptr %4
}

; Function Attrs: mustprogress nounwind uwtable
define internal noundef ptr @_ZNSt14__array_traitsIN7glslang12_GLOBAL__N_115BuiltInFunctionELm79EE6_S_ptrERA79_KS2_(ptr noundef nonnull align 8 dereferenceable(3792) %0) #2 align 2 {
  %2 = alloca ptr, align 8
  store ptr %0, ptr %2, align 8
  %3 = load ptr, ptr %2, align 8
  %4 = getelementptr inbounds [79 x %"struct.glslang::(anonymous namespace)::BuiltInFunction"], ptr %3, i64 0, i64 0
  ret ptr %4
}

; Function Attrs: mustprogress nounwind willreturn memory(none) uwtable
define internal noundef i64 @_ZNKSt5arrayIN7glslang12_GLOBAL__N_115BuiltInFunctionELm3EE4sizeEv(ptr noundef nonnull align 8 dereferenceable(144) %0) #9 align 2 {
  %2 = alloca ptr, align 8
  store ptr %0, ptr %2, align 8
  ret i64 3
}

; Function Attrs: mustprogress nounwind uwtable
define internal noundef ptr @_ZNKSt5arrayIN7glslang12_GLOBAL__N_115BuiltInFunctionELm3EE4dataEv(ptr noundef nonnull align 8 dereferenceable(144) %0) #2 align 2 {
  %2 = alloca ptr, align 8
  store ptr %0, ptr %2, align 8
  %3 = load ptr, ptr %2, align 8
  %4 = getelementptr inbounds %"struct.std::array.2", ptr %3, i32 0, i32 0
  %5 = call noundef ptr @_ZNSt14__array_traitsIN7glslang12_GLOBAL__N_115BuiltInFunctionELm3EE6_S_ptrERA3_KS2_(ptr noundef nonnull align 8 dereferenceable(144) %4) #10
  ret ptr %5
}

; Function Attrs: mustprogress nounwind willreturn memory(none) uwtable
define internal noundef i64 @_ZNKSt5arrayIN7glslang12_GLOBAL__N_115BuiltInFunctionELm79EE4sizeEv(ptr noundef nonnull align 8 dereferenceable(3792) %0) #9 align 2 {
  %2 = alloca ptr, align 8
  store ptr %0, ptr %2, align 8
  ret i64 79
}

; Function Attrs: mustprogress nounwind uwtable
define internal noundef ptr @_ZNKSt5arrayIN7glslang12_GLOBAL__N_115BuiltInFunctionELm79EE4dataEv(ptr noundef nonnull align 8 dereferenceable(3792) %0) #2 align 2 {
  %2 = alloca ptr, align 8
  store ptr %0, ptr %2, align 8
  %3 = load ptr, ptr %2, align 8
  %4 = getelementptr inbounds %"struct.std::array", ptr %3, i32 0, i32 0
  %5 = call noundef ptr @_ZNSt14__array_traitsIN7glslang12_GLOBAL__N_115BuiltInFunctionELm79EE6_S_ptrERA79_KS2_(ptr noundef nonnull align 8 dereferenceable(3792) %4) #10
  ret ptr %5
}

; Function Attrs: mustprogress nounwind uwtable
define internal void @_ZN4spanIKN7glslang12_GLOBAL__N_115BuiltInFunctionEEC2IKSt5arrayIS2_Lm3EEEERT_(ptr noundef nonnull align 8 dereferenceable(16) %0, ptr noundef nonnull align 8 dereferenceable(144) %1) unnamed_addr #2 align 2 {
  %3 = alloca ptr, align 8
  %4 = alloca ptr, align 8
  store ptr %0, ptr %3, align 8
  store ptr %1, ptr %4, align 8
  %5 = load ptr, ptr %3, align 8
  %6 = getelementptr inbounds %class.span.1, ptr %5, i32 0, i32 0
  %7 = load ptr, ptr %4, align 8
  %8 = call noundef ptr @_ZNKSt5arrayIN7glslang12_GLOBAL__N_115BuiltInFunctionELm3EE4dataEv(ptr noundef nonnull align 8 dereferenceable(144) %7) #10
  store ptr %8, ptr %6, align 8
  %9 = getelementptr inbounds %class.span.1, ptr %5, i32 0, i32 1
  %10 = load ptr, ptr %4, align 8
  %11 = call noundef i64 @_ZNKSt5arrayIN7glslang12_GLOBAL__N_115BuiltInFunctionELm3EE4sizeEv(ptr noundef nonnull align 8 dereferenceable(144) %10) #11
  store i64 %11, ptr %9, align 8
  ret void
}

; Function Attrs: mustprogress nounwind uwtable
define internal void @_ZN4spanIKN7glslang12_GLOBAL__N_115BuiltInFunctionEEC2IKSt5arrayIS2_Lm79EEEERT_(ptr noundef nonnull align 8 dereferenceable(16) %0, ptr noundef nonnull align 8 dereferenceable(3792) %1) unnamed_addr #2 align 2 {
  %3 = alloca ptr, align 8
  %4 = alloca ptr, align 8
  store ptr %0, ptr %3, align 8
  store ptr %1, ptr %4, align 8
  %5 = load ptr, ptr %3, align 8
  %6 = getelementptr inbounds %class.span.1, ptr %5, i32 0, i32 0
  %7 = load ptr, ptr %4, align 8
  %8 = call noundef ptr @_ZNKSt5arrayIN7glslang12_GLOBAL__N_115BuiltInFunctionELm79EE4dataEv(ptr noundef nonnull align 8 dereferenceable(3792) %7) #10
  store ptr %8, ptr %6, align 8
  %9 = getelementptr inbounds %class.span.1, ptr %5, i32 0, i32 1
  %10 = load ptr, ptr %4, align 8
  %11 = call noundef i64 @_ZNKSt5arrayIN7glslang12_GLOBAL__N_115BuiltInFunctionELm79EE4sizeEv(ptr noundef nonnull align 8 dereferenceable(3792) %10) #11
  store i64 %11, ptr %9, align 8
  ret void
}

; Function Attrs: mustprogress nounwind uwtable
define void @_ZN7glslang9TBuiltIns17addTabledBuiltinsEi8EProfileRKNS_10SpvVersionE(ptr noundef nonnull align 8 dereferenceable(876) %0, i32 noundef %1, i32 noundef %2, ptr noundef nonnull align 4 dereferenceable(17) %3) #2 align 2 {
  %5 = alloca ptr, align 8
  %6 = alloca i32, align 4
  %7 = alloca i32, align 4
  %8 = alloca ptr, align 8
  %9 = alloca %class.anon, align 8
  %10 = alloca %class.span.1, align 8
  %11 = alloca %class.span.1, align 8
  %12 = alloca %class.span.1, align 8
  store ptr %0, ptr %5, align 8
  store i32 %1, ptr %6, align 4
  store i32 %2, ptr %7, align 4
  store ptr %3, ptr %8, align 8
  %13 = load ptr, ptr %5, align 8
  %14 = getelementptr inbounds %class.anon, ptr %9, i32 0, i32 0
  store ptr %6, ptr %14, align 8
  %15 = getelementptr inbounds %class.anon, ptr %9, i32 0, i32 1
  store ptr %7, ptr %15, align 8
  %16 = getelementptr inbounds %class.anon, ptr %9, i32 0, i32 2
  %17 = load ptr, ptr %8, align 8
  store ptr %17, ptr %16, align 8
  %18 = getelementptr inbounds %"class.glslang::TBuiltInParseables", ptr %13, i32 0, i32 1
  call void @_ZN4spanIKN7glslang12_GLOBAL__N_115BuiltInFunctionEEC2IKSt5arrayIS2_Lm79EEEERT_(ptr noundef nonnull align 8 dereferenceable(16) %10, ptr noundef nonnull align 8 dereferenceable(3792) @_ZN7glslang12_GLOBAL__N_113BaseFunctionsE)
  call void @"_ZZN7glslang9TBuiltIns17addTabledBuiltinsEi8EProfileRKNS_10SpvVersionEENK3$_0clERNSt7__cxx1112basic_stringIcSt11char_traitsIcENS_14pool_allocatorIcEEEERK4spanIKNS_12_GLOBAL__N_115BuiltInFunctionEE"(ptr noundef nonnull align 8 dereferenceable(24) %9, ptr noundef nonnull align 8 dereferenceable(40) %18, ptr noundef nonnull align 8 dereferenceable(16) %10)
  %19 = getelementptr inbounds %"class.glslang::TBuiltInParseables", ptr %13, i32 0, i32 2
  %20 = getelementptr inbounds [14 x %"class.std::__cxx11::basic_string"], ptr %19, i64 0, i64 4
  call void @_ZN4spanIKN7glslang12_GLOBAL__N_115BuiltInFunctionEEC2IKSt5arrayIS2_Lm3EEEERT_(ptr noundef nonnull align 8 dereferenceable(16) %11, ptr noundef nonnull align 8 dereferenceable(144) @_ZN7glslang12_GLOBAL__N_119DerivativeFunctionsE)
  call void @"_ZZN7glslang9TBuiltIns17addTabledBuiltinsEi8EProfileRKNS_10SpvVersionEENK3$_0clERNSt7__cxx1112basic_stringIcSt11char_traitsIcENS_14pool_allocatorIcEEEERK4spanIKNS_12_GLOBAL__N_115BuiltInFunctionEE"(ptr noundef nonnull align 8 dereferenceable(24) %9, ptr noundef nonnull align 8 dereferenceable(40) %20, ptr noundef nonnull align 8 dereferenceable(16) %11)
  %21 = load i32, ptr %7, align 4
  %22 = icmp eq i32 %21, 8
  br i1 %22, label %23, label %26

23:                                               ; preds = %4
  %24 = load i32, ptr %6, align 4
  %25 = icmp sge i32 %24, 320
  br i1 %25, label %32, label %26

26:                                               ; preds = %23, %4
  %27 = load i32, ptr %7, align 4
  %28 = icmp ne i32 %27, 8
  br i1 %28, label %29, label %35

29:                                               ; preds = %26
  %30 = load i32, ptr %6, align 4
  %31 = icmp sge i32 %30, 450
  br i1 %31, label %32, label %35

32:                                               ; preds = %29, %23
  %33 = getelementptr inbounds %"class.glslang::TBuiltInParseables", ptr %13, i32 0, i32 2
  %34 = getelementptr inbounds [14 x %"class.std::__cxx11::basic_string"], ptr %33, i64 0, i64 5
  call void @_ZN4spanIKN7glslang12_GLOBAL__N_115BuiltInFunctionEEC2IKSt5arrayIS2_Lm3EEEERT_(ptr noundef nonnull align 8 dereferenceable(16) %12, ptr noundef nonnull align 8 dereferenceable(144) @_ZN7glslang12_GLOBAL__N_119DerivativeFunctionsE)
  call void @"_ZZN7glslang9TBuiltIns17addTabledBuiltinsEi8EProfileRKNS_10SpvVersionEENK3$_0clERNSt7__cxx1112basic_stringIcSt11char_traitsIcENS_14pool_allocatorIcEEEERK4spanIKNS_12_GLOBAL__N_115BuiltInFunctionEE"(ptr noundef nonnull align 8 dereferenceable(24) %9, ptr noundef nonnull align 8 dereferenceable(40) %34, ptr noundef nonnull align 8 dereferenceable(16) %12)
  br label %35

35:                                               ; preds = %32, %29, %26
  ret void
}