; Function Attrs: mustprogress nounwind uwtable
define void @_ZN7glslang9TBuiltIns17addTabledBuiltinsEi8EProfileRKNS_10SpvVersionE(ptr noundef nonnull align 8 dereferenceable(876) %0, i32 noundef %1, i32 noundef %2, ptr noundef nonnull readnone align 4 captures(none) dereferenceable(17) %3) local_unnamed_addr #1 align 2 {
  %5 = alloca i32, align 4
  %6 = alloca i32, align 4
  store i32 %1, ptr %5, align 4
  store i32 %2, ptr %6, align 4
  %7 = getelementptr inbounds nuw i8, ptr %0, i64 8
  call fastcc void @"_ZZN7glslang9TBuiltIns17addTabledBuiltinsEi8EProfileRKNS_10SpvVersionEENK3$_0clERNSt7__cxx1112basic_stringIcSt11char_traitsIcENS_14pool_allocatorIcEEEERK4spanIKNS_12_GLOBAL__N_115BuiltInFunctionEE"(ptr nonnull %5, ptr nonnull %6, ptr noundef nonnull align 8 dereferenceable(40) %7, ptr nonnull @_ZN7glslang12_GLOBAL__N_113BaseFunctionsE, i64 79)
  %8 = getelementptr inbounds nuw i8, ptr %0, i64 208
  call fastcc void @"_ZZN7glslang9TBuiltIns17addTabledBuiltinsEi8EProfileRKNS_10SpvVersionEENK3$_0clERNSt7__cxx1112basic_stringIcSt11char_traitsIcENS_14pool_allocatorIcEEEERK4spanIKNS_12_GLOBAL__N_115BuiltInFunctionEE"(ptr nonnull %5, ptr nonnull %6, ptr noundef nonnull align 8 dereferenceable(40) %8, ptr nonnull @_ZN7glslang12_GLOBAL__N_119DerivativeFunctionsE, i64 3)
  %9 = icmp eq i32 %2, 8
  %10 = icmp sgt i32 %1, 319
  %or.cond = and i1 %10, %9
  br i1 %or.cond, label %14, label %11

11:                                               ; preds = %4
  %12 = icmp ne i32 %2, 8
  %13 = icmp sgt i32 %1, 449
  %or.cond3 = and i1 %13, %12
  br i1 %or.cond3, label %14, label %16

14:                                               ; preds = %11, %4
  %15 = getelementptr inbounds nuw i8, ptr %0, i64 248
  call fastcc void @"_ZZN7glslang9TBuiltIns17addTabledBuiltinsEi8EProfileRKNS_10SpvVersionEENK3$_0clERNSt7__cxx1112basic_stringIcSt11char_traitsIcENS_14pool_allocatorIcEEEERK4spanIKNS_12_GLOBAL__N_115BuiltInFunctionEE"(ptr nonnull %5, ptr nonnull %6, ptr noundef nonnull align 8 dereferenceable(40) %15, ptr nonnull @_ZN7glslang12_GLOBAL__N_119DerivativeFunctionsE, i64 3)
  br label %16

16:                                               ; preds = %14, %11
  ret void
}